; ModuleID = 'source-C-CXX/32/3275.c'
source_filename = "source-C-CXX/32/3275.c"
target datalayout = "e-m:e-p270:32:32-p271:32:32-p272:64:64-i64:64-f80:128-n8:16:32:64-S128"
target triple = "x86_64-pc-linux-gnu"

; Function Attrs: nounwind sspstrong uwtable
define dso_local i32 @main() local_unnamed_addr #0 {
  %1 = alloca [1000 x [256 x i8]], align 16
  %2 = alloca [12 x i8], align 1
  %3 = getelementptr inbounds [1000 x [256 x i8]], [1000 x [256 x i8]]* %1, i64 0, i64 0, i64 0
  call void @llvm.lifetime.start.p0i8(i64 256000, i8* nonnull %3) #5
  %4 = getelementptr inbounds [12 x i8], [12 x i8]* %2, i64 0, i64 0
  call void @llvm.lifetime.start.p0i8(i64 12, i8* nonnull %4) #5
  %5 = call i32 (i8*, ...) bitcast (i32 (...)* @gets to i32 (i8*, ...)*)(i8* nonnull %4) #5
  %6 = call i64 @strtol(i8* nocapture nonnull %4, i8** null, i32 10) #5
  %7 = trunc i64 %6 to i32
  %8 = icmp sgt i32 %7, 0
  br i1 %8, label %9, label %37

9:                                                ; preds = %0
  %10 = and i64 %6, 4294967295
  br label %14

11:                                               ; preds = %14
  br i1 %8, label %12, label %37

12:                                               ; preds = %11
  %13 = and i64 %6, 4294967295
  br label %20

14:                                               ; preds = %9, %14
  %15 = phi i64 [ 0, %9 ], [ %18, %14 ]
  %16 = getelementptr inbounds [1000 x [256 x i8]], [1000 x [256 x i8]]* %1, i64 0, i64 %15, i64 0
  %17 = call i32 (i8*, ...) bitcast (i32 (...)* @gets to i32 (i8*, ...)*)(i8* nonnull %16) #5
  %18 = add nuw nsw i64 %15, 1
  %19 = icmp eq i64 %18, %10
  br i1 %19, label %11, label %14, !llvm.loop !5

20:                                               ; preds = %12, %33
  %21 = phi i64 [ 0, %12 ], [ %35, %33 ]
  br label %22

22:                                               ; preds = %20, %28
  %23 = phi i64 [ 0, %20 ], [ %32, %28 ]
  %24 = getelementptr inbounds [1000 x [256 x i8]], [1000 x [256 x i8]]* %1, i64 0, i64 %21, i64 %23
  %25 = load i8, i8* %24, align 1, !tbaa !7
  %26 = sext i8 %25 to i32
  switch i8 %25, label %27 [
    i8 0, label %33
    i8 65, label %28
    i8 84, label %28
  ]

27:                                               ; preds = %22
  br label %28

28:                                               ; preds = %22, %22, %27
  %29 = phi i32 [ 138, %27 ], [ 149, %22 ], [ 149, %22 ]
  %30 = sub nsw i32 %29, %26
  %31 = call i32 @putchar(i32 %30)
  %32 = add nuw i64 %23, 1
  br label %22, !llvm.loop !10

33:                                               ; preds = %22
  %34 = call i32 @putchar(i32 10)
  %35 = add nuw nsw i64 %21, 1
  %36 = icmp eq i64 %35, %13
  br i1 %36, label %37, label %20, !llvm.loop !11

37:                                               ; preds = %33, %0, %11
  call void @llvm.lifetime.end.p0i8(i64 12, i8* nonnull %4) #5
  call void @llvm.lifetime.end.p0i8(i64 256000, i8* nonnull %3) #5
  ret i32 0
}

; Function Attrs: argmemonly mustprogress nofree nosync nounwind willreturn
declare void @llvm.lifetime.start.p0i8(i64 immarg, i8* nocapture) #1

declare i32 @gets(...) local_unnamed_addr #2

; Function Attrs: argmemonly mustprogress nofree nosync nounwind willreturn
declare void @llvm.lifetime.end.p0i8(i64 immarg, i8* nocapture) #1

; Function Attrs: mustprogress nofree nounwind willreturn
declare i64 @strtol(i8* readonly, i8** nocapture, i32) local_unnamed_addr #3

; Function Attrs: nofree nounwind
declare noundef i32 @putchar(i32 noundef) local_unnamed_addr #4


!llvm.module.flags = !{!0, !1, !2, !3}
!llvm.ident = !{!4}

!0 = !{i32 1, !"wchar_size", i32 4}
!1 = !{i32 7, !"PIC Level", i32 2}
!2 = !{i32 7, !"PIE Level", i32 2}
!3 = !{i32 7, !"uwtable", i32 1}
!4 = !{!"clang version 13.0.0"}
!5 = distinct !{!5, !6}
!6 = !{!"llvm.loop.mustprogress"}
!7 = !{!8, !8, i64 0}
!8 = !{!"omnipotent char", !9, i64 0}
!9 = !{!"Simple C/C++ TBAA"}
!10 = distinct !{!10, !6}
!11 = distinct !{!11, !6}
